(lp0
F0.0
aI0
aI0
aI0
aI0
aNaNa(lp1
(lp2
NaI0
aa(lp3
NaI0
aa(lp4
NaI0
aa(lp5
NaI0
aa(lp6
NaI0
aa(lp7
NaI0
aa(lp8
NaI0
aaa(lp9
(lp10
NaI0
aa(lp11
NaI0
aa(lp12
NaI0
aa(lp13
NaI0
aa(lp14
NaI0
aa(lp15
NaI0
aa(lp16
NaI0
aaa.